; Function Attrs: null_pointer_is_valid sspstrong uwtable
define internal fastcc ptr @sdp_new_media_description(ptr noundef %0, ptr noundef readonly captures(none) %1) unnamed_addr #0 {
  %3 = alloca %struct.media_description_t, align 8
  call void @llvm.lifetime.start.p0(i64 176, ptr nonnull %3) #11
  %4 = tail call i32 @wmem_array_get_count(ptr noundef %0)
  %5 = icmp ugt i32 %4, 3
  br i1 %5, label %30, label %6

6:                                                ; preds = %2
  call void @llvm.memset.p0.i64(ptr noundef nonnull align 8 dereferenceable(176) %3, i8 noundef 0, i64 noundef 176, i1 noundef false) #11
  call void @wmem_array_append(ptr noundef %0, ptr noundef nonnull %3, i32 noundef 1)
  %7 = call i32 @wmem_array_get_count(ptr noundef %0)
  %8 = add i32 %7, -1
  %9 = call ptr @wmem_array_index(ptr noundef %0, i32 noundef %8)
  %10 = load i32, ptr %1, align 8
  %.not = icmp eq i32 %10, 0
  br i1 %.not, label %copy_address_wmem.exit, label %11

11:                                               ; preds = %6
  %12 = call ptr @wmem_file_scope()
  %13 = getelementptr inbounds nuw i8, ptr %9, i64 16
  %14 = load i32, ptr %1, align 8
  %15 = getelementptr inbounds nuw i8, ptr %1, i64 4
  %16 = load i32, ptr %15, align 4
  %17 = getelementptr inbounds nuw i8, ptr %1, i64 8
  %18 = load ptr, ptr %17, align 8
  call void @llvm.memset.p0.i64(ptr noundef nonnull align 8 dereferenceable(24) %13, i8 0, i64 24, i1 false)
  store i32 %14, ptr %13, align 8
  %19 = icmp eq i32 %16, 0
  br i1 %19, label %copy_address_wmem.exit, label %20

20:                                               ; preds = %11
  %21 = sext i32 %16 to i64
  %22 = call ptr @wmem_memdup(ptr noundef %12, ptr noundef %18, i64 noundef %21) #13
  %23 = getelementptr inbounds nuw i8, ptr %9, i64 32
  store ptr %22, ptr %23, align 8
  %24 = getelementptr inbounds nuw i8, ptr %9, i64 24
  store ptr %22, ptr %24, align 8
  %25 = getelementptr inbounds nuw i8, ptr %9, i64 20
  store i32 %16, ptr %25, align 4
  br label %copy_address_wmem.exit

copy_address_wmem.exit:                           ; preds = %20, %11, %6
  %26 = getelementptr inbounds nuw i8, ptr %1, i64 24
  %27 = load ptr, ptr %26, align 8
  %28 = call ptr @rtp_dyn_payload_dup(ptr noundef %27)
  %29 = getelementptr inbounds nuw i8, ptr %9, i64 128
  store ptr %28, ptr %29, align 8
  br label %30

30:                                               ; preds = %2, %copy_address_wmem.exit
  %.0 = phi ptr [ %9, %copy_address_wmem.exit ], [ null, %2 ]
  call void @llvm.lifetime.end.p0(i64 176, ptr nonnull %3) #11
  ret ptr %.0
}